; Function Attrs: mustprogress uwtable
define hidden void @_ZN2cv8ximgproc18SuperpixelSLICImpl7iterateEi(ptr noundef nonnull align 8 dereferenceable(276) %0, i32 noundef %1) unnamed_addr #3 align 2 personality ptr @__gxx_personality_v0 {
  %3 = alloca i32, align 4
  %4 = alloca %"class.std::__cxx11::basic_string", align 8
  %5 = alloca %"class.std::allocator.14", align 1
  store i32 %1, ptr %3, align 4
  %6 = getelementptr inbounds i8, ptr %0, i64 44
  store i32 %1, ptr %6, align 4
  %7 = getelementptr inbounds i8, ptr %0, i64 20
  %8 = load i32, ptr %7, align 4
  switch i32 %8, label %12 [
    i32 101, label %9
    i32 100, label %10
    i32 102, label %11
  ]

9:                                                ; preds = %2
  call void @_ZN2cv8ximgproc18SuperpixelSLICImpl12PerformSLICOERKi(ptr noundef nonnull align 8 dereferenceable(276) %0, ptr noundef nonnull align 4 dereferenceable(4) %3)
  br label %20

10:                                               ; preds = %2
  call void @_ZN2cv8ximgproc18SuperpixelSLICImpl11PerformSLICERKi(ptr noundef nonnull align 8 dereferenceable(276) %0, ptr noundef nonnull align 4 dereferenceable(4) %3)
  br label %20

11:                                               ; preds = %2
  call void @_ZN2cv8ximgproc18SuperpixelSLICImpl12PerformMSLICERKi(ptr noundef nonnull align 8 dereferenceable(276) %0, ptr noundef nonnull align 4 dereferenceable(4) %3)
  br label %20

12:                                               ; preds = %2
  call void @_ZNSaIcEC1Ev(ptr noundef nonnull align 1 dereferenceable(1) %5) #22
  invoke void @_ZNSt7__cxx1112basic_stringIcSt11char_traitsIcESaIcEEC1EPKcRKS3_(ptr noundef nonnull align 8 dereferenceable(32) %4, ptr noundef nonnull @.str.4, ptr noundef nonnull align 1 dereferenceable(1) %5)
          to label %13 unwind label %15

13:                                               ; preds = %12
  invoke void @_ZN2cv5errorEiRKNSt7__cxx1112basic_stringIcSt11char_traitsIcESaIcEEEPKcS9_i(i32 noundef -3, ptr noundef nonnull align 8 dereferenceable(32) %4, ptr noundef nonnull @__func__._ZN2cv8ximgproc18SuperpixelSLICImpl7iterateEi, ptr noundef nonnull @.str.1, i32 noundef 293) #23
          to label %14 unwind label %17

14:                                               ; preds = %13
  unreachable

15:                                               ; preds = %12
  %16 = landingpad { ptr, i32 }
          cleanup
  br label %19

17:                                               ; preds = %13
  %18 = landingpad { ptr, i32 }
          cleanup
  call void @_ZNSt7__cxx1112basic_stringIcSt11char_traitsIcESaIcEED1Ev(ptr noundef nonnull align 8 dereferenceable(32) %4) #22
  br label %19

19:                                               ; preds = %17, %15
  %.pn = phi { ptr, i32 } [ %18, %17 ], [ %16, %15 ]
  call void @_ZNSaIcED1Ev(ptr noundef nonnull align 1 dereferenceable(1) %5) #22
  resume { ptr, i32 } %.pn

20:                                               ; preds = %10, %11, %9
  %21 = getelementptr inbounds i8, ptr %0, i64 224
  %22 = load ptr, ptr %21, align 8
  %23 = getelementptr inbounds i8, ptr %22, i64 8
  %24 = load ptr, ptr %23, align 8
  %25 = load ptr, ptr %22, align 8
  %26 = ptrtoint ptr %24 to i64
  %27 = ptrtoint ptr %25 to i64
  %28 = sub i64 %26, %27
  %29 = lshr exact i64 %28, 2
  %30 = trunc i64 %29 to i32
  %31 = getelementptr inbounds i8, ptr %0, i64 48
  store i32 %30, ptr %31, align 8
  ret void
}